Certificate:
    Data:
        Version: 3 (0x2)
        Serial Number: 138059851009 (0x2025022501)
        Signature Algorithm: ecdsa-with-SHA256
        Issuer: O = Radiator Demo Certificates, OU = Test Certificate Section, CN = Radiator Test CA (do not use in production), emailAddress = testUser@radiatorsoftware.example.com
        Validity
            Not Before: Feb 25 12:40:24 2025 GMT
            Not After : Feb 25 12:40:24 2027 GMT
        Subject: O = Radiator Demo Certificates, OU = Test Certificate Section, CN = testUser
        Subject Public Key Info:
            Public Key Algorithm: id-ecPublicKey
                Public-Key: (256 bit)
                pub:
                    04:55:4f:bf:07:4c:8b:78:65:54:dc:28:1e:8a:b8:
                    e8:99:4c:bc:23:40:63:c3:9a:3b:ba:ad:45:2e:f2:
                    43:9f:55:05:e7:4b:95:61:76:b2:30:26:f9:03:9b:
                    dd:48:6c:82:03:d4:77:2e:19:0f:58:61:8b:c4:ac:
                    2a:e4:8e:ff:f7
                ASN1 OID: prime256v1
                NIST CURVE: P-256
        X509v3 extensions:
            X509v3 Basic Constraints: critical
                CA:FALSE
            X509v3 Key Usage: 
                Digital Signature
            X509v3 Extended Key Usage: 
                TLS Web Client Authentication
            X509v3 Subject Alternative Name: 
                IP Address:192.0.2.31, IP Address:2001:DB8:148:100:0:0:0:31, email:testUser@radiatorsoftware.example.com
            X509v3 Subject Key Identifier: 
                9D:28:92:C2:C6:73:0B:D7:EE:8B:06:9D:11:5F:FE:5E:77:D1:DC:7F
            X509v3 Authority Key Identifier: 
                98:56:1E:D8:8E:6A:43:88:87:C6:FF:BF:FC:C9:A8:8E:80:E7:77:6A
    Signature Algorithm: ecdsa-with-SHA256
    Signature Value:
        30:45:02:20:79:e2:4a:85:e4:50:4b:09:03:b6:2d:34:e6:23:
        2c:a7:1b:b1:ee:3b:2d:9b:2e:72:a6:49:79:da:af:e5:64:bf:
        02:21:00:80:8d:25:48:74:cd:0e:fb:1b:92:5c:95:31:6b:dc:
        7b:41:7b:05:76:f7:48:7e:15:f5:f7:5f:9a:c5:25:e4:1a
-----BEGIN CERTIFICATE-----
MIICwTCCAmegAwIBAgIFICUCJQEwCgYIKoZIzj0EAwIwgbQxIzAhBgNVBAoMGlJh
ZGlhdG9yIERlbW8gQ2VydGlmaWNhdGVzMSEwHwYDVQQLDBhUZXN0IENlcnRpZmlj
YXRlIFNlY3Rpb24xNDAyBgNVBAMMK1JhZGlhdG9yIFRlc3QgQ0EgKGRvIG5vdCB1
c2UgaW4gcHJvZHVjdGlvbikxNDAyBgkqhkiG9w0BCQEWJXRlc3RVc2VyQHJhZGlh
dG9yc29mdHdhcmUuZXhhbXBsZS5jb20wHhcNMjUwMjI1MTI0MDI0WhcNMjcwMjI1
MTI0MDI0WjBbMSMwIQYDVQQKDBpSYWRpYXRvciBEZW1vIENlcnRpZmljYXRlczEh
MB8GA1UECwwYVGVzdCBDZXJ0aWZpY2F0ZSBTZWN0aW9uMREwDwYDVQQDDAh0ZXN0
VXNlcjBZMBMGByqGSM49AgEGCCqGSM49AwEHA0IABFVPvwdMi3hlVNwoHoq46JlM
vCNAY8OaO7qtRS7yQ59VBedLlWF2sjAm+QOb3UhsggPUdy4ZD1hhi8SsKuSO//ej
gb0wgbowDAYDVR0TAQH/BAIwADALBgNVHQ8EBAMCB4AwEwYDVR0lBAwwCgYIKwYB
BQUHAwIwSAYDVR0RBEEwP4cEwAACH4cQIAENuAFIAQAAAAAAAAAAMYEldGVzdFVz
ZXJAcmFkaWF0b3Jzb2Z0d2FyZS5leGFtcGxlLmNvbTAdBgNVHQ4EFgQUnSiSwsZz
C9fuiwadEV/+XnfR3H8wHwYDVR0jBBgwFoAUmFYe2I5qQ4iHxv+//MmojoDnd2ow
CgYIKoZIzj0EAwIDSAAwRQIgeeJKheRQSwkDti005iMspxux7jstmy5ypkl52q/l
ZL8CIQCAjSVIdM0O+xuSXJUxa9x7QXsFdvdIfhX191+axSXkGg==
-----END CERTIFICATE-----
