Certificate:
    Data:
        Version: 3 (0x2)
        Serial Number: 138059851013 (0x2025022505)
        Signature Algorithm: ecdsa-with-SHA256
        Issuer: O = Radiator Demo Certificates, OU = Test Certificate Section, CN = Radiator Test CA (do not use in production), emailAddress = testUser@radiatorsoftware.example.com
        Validity
            Not Before: Feb 25 12:40:28 2025 GMT
            Not After : Feb 25 12:40:28 2027 GMT
        Subject: O = Radiator Demo Certificates, OU = Test Certificate Section, CN = Radiator Test Intermediate CA I2 (do not use in production)
        Subject Public Key Info:
            Public Key Algorithm: id-ecPublicKey
                Public-Key: (256 bit)
                pub:
                    04:dc:82:a9:bc:a1:51:e4:0c:4f:c1:33:f6:c6:cc:
                    73:d2:dd:24:d4:eb:b9:f3:c5:c3:41:7f:f3:24:11:
                    36:61:93:b8:42:ad:cf:86:94:3f:34:9a:2c:a6:44:
                    50:b8:5e:82:15:a3:dc:b7:24:db:1f:22:cd:59:98:
                    d8:da:19:94:61
                ASN1 OID: prime256v1
                NIST CURVE: P-256
        X509v3 extensions:
            X509v3 Basic Constraints: critical
                CA:TRUE, pathlen:0
            X509v3 Key Usage: critical
                Certificate Sign, CRL Sign
            X509v3 Subject Key Identifier: 
                5C:8F:B3:D9:9E:AB:D6:9C:6F:88:4F:A4:AA:B4:42:B5:29:2F:2F:6B
            X509v3 Authority Key Identifier: 
                98:56:1E:D8:8E:6A:43:88:87:C6:FF:BF:FC:C9:A8:8E:80:E7:77:6A
    Signature Algorithm: ecdsa-with-SHA256
    Signature Value:
        30:44:02:20:6c:8e:f8:b5:39:36:dd:2c:b2:54:ca:a0:b5:9a:
        49:a5:35:4a:1c:0a:7b:bc:b9:f2:f2:31:af:e9:1c:44:a2:45:
        02:20:34:9b:5d:c8:cd:d7:a9:fb:2b:4d:45:26:8c:79:d4:c8:
        19:cd:dd:75:89:ac:ef:5e:d5:ed:4d:de:63:73:86:35
-----BEGIN CERTIFICATE-----
MIICnDCCAkOgAwIBAgIFICUCJQUwCgYIKoZIzj0EAwIwgbQxIzAhBgNVBAoMGlJh
ZGlhdG9yIERlbW8gQ2VydGlmaWNhdGVzMSEwHwYDVQQLDBhUZXN0IENlcnRpZmlj
YXRlIFNlY3Rpb24xNDAyBgNVBAMMK1JhZGlhdG9yIFRlc3QgQ0EgKGRvIG5vdCB1
c2UgaW4gcHJvZHVjdGlvbikxNDAyBgkqhkiG9w0BCQEWJXRlc3RVc2VyQHJhZGlh
dG9yc29mdHdhcmUuZXhhbXBsZS5jb20wHhcNMjUwMjI1MTI0MDI4WhcNMjcwMjI1
MTI0MDI4WjCBjjEjMCEGA1UECgwaUmFkaWF0b3IgRGVtbyBDZXJ0aWZpY2F0ZXMx
ITAfBgNVBAsMGFRlc3QgQ2VydGlmaWNhdGUgU2VjdGlvbjFEMEIGA1UEAww7UmFk
aWF0b3IgVGVzdCBJbnRlcm1lZGlhdGUgQ0EgSTIgKGRvIG5vdCB1c2UgaW4gcHJv
ZHVjdGlvbikwWTATBgcqhkjOPQIBBggqhkjOPQMBBwNCAATcgqm8oVHkDE/BM/bG
zHPS3STU67nzxcNBf/MkETZhk7hCrc+GlD80miymRFC4XoIVo9y3JNsfIs1ZmNja
GZRho2YwZDASBgNVHRMBAf8ECDAGAQH/AgEAMA4GA1UdDwEB/wQEAwIBBjAdBgNV
HQ4EFgQUXI+z2Z6r1pxviE+kqrRCtSkvL2swHwYDVR0jBBgwFoAUmFYe2I5qQ4iH
xv+//MmojoDnd2owCgYIKoZIzj0EAwIDRwAwRAIgbI74tTk23SyyVMqgtZpJpTVK
HAp7vLny8jGv6RxEokUCIDSbXcjN16n7K01FJox51MgZzd11iazvXtXtTd5jc4Y1
-----END CERTIFICATE-----
