Certificate:
    Data:
        Version: 3 (0x2)
        Serial Number: 138059851011 (0x2025022503)
        Signature Algorithm: ecdsa-with-SHA256
        Issuer: O = Radiator Demo Certificates, OU = Test Certificate Section, CN = Radiator Test CA (do not use in production), emailAddress = testUser@radiatorsoftware.example.com
        Validity
            Not Before: Feb 25 12:40:24 2025 GMT
            Not After : Feb 26 12:40:24 2025 GMT
        Subject: O = Radiator Demo Certificates, OU = Test Certificate Section, CN = expired.example.com
        Subject Public Key Info:
            Public Key Algorithm: id-ecPublicKey
                Public-Key: (256 bit)
                pub:
                    04:66:d2:56:e3:2d:32:1d:6e:82:9b:ff:41:7e:f1:
                    e3:7a:df:7d:cb:1f:7f:ec:a6:59:fa:51:9c:da:88:
                    05:85:e5:16:94:3a:5b:58:99:5e:11:26:0d:f1:31:
                    52:f2:3e:35:fc:ae:3e:b7:d3:f0:a9:3e:ca:2c:a3:
                    2a:b0:9e:f5:53
                ASN1 OID: prime256v1
                NIST CURVE: P-256
        X509v3 extensions:
            X509v3 Basic Constraints: critical
                CA:FALSE
            X509v3 Key Usage: 
                Digital Signature, Key Encipherment
            X509v3 Extended Key Usage: 
                TLS Web Client Authentication, TLS Web Server Authentication
            X509v3 Subject Alternative Name: 
                IP Address:192.0.2.61, IP Address:2001:DB8:148:100:0:0:0:61, DNS:expired.example.com, URI:https://expired.example.com, email:expired@radiatorsoftware.example.com
            X509v3 Subject Key Identifier: 
                2A:D9:ED:84:24:0D:BA:38:EF:BA:42:FD:C7:50:09:7E:2E:03:50:FD
            X509v3 Authority Key Identifier: 
                98:56:1E:D8:8E:6A:43:88:87:C6:FF:BF:FC:C9:A8:8E:80:E7:77:6A
    Signature Algorithm: ecdsa-with-SHA256
    Signature Value:
        30:45:02:20:21:a5:c6:75:bb:29:75:d9:c4:7f:b2:a0:c8:7c:
        55:79:86:15:27:11:68:32:07:1a:ef:fa:98:a2:18:98:e5:07:
        02:21:00:d4:50:3b:f3:3c:56:94:92:ce:57:8b:87:0b:6d:89:
        24:dc:92:c2:63:78:a5:15:7f:5e:99:23:4f:8b:af:31:c8
-----BEGIN CERTIFICATE-----
MIIDBzCCAq2gAwIBAgIFICUCJQMwCgYIKoZIzj0EAwIwgbQxIzAhBgNVBAoMGlJh
ZGlhdG9yIERlbW8gQ2VydGlmaWNhdGVzMSEwHwYDVQQLDBhUZXN0IENlcnRpZmlj
YXRlIFNlY3Rpb24xNDAyBgNVBAMMK1JhZGlhdG9yIFRlc3QgQ0EgKGRvIG5vdCB1
c2UgaW4gcHJvZHVjdGlvbikxNDAyBgkqhkiG9w0BCQEWJXRlc3RVc2VyQHJhZGlh
dG9yc29mdHdhcmUuZXhhbXBsZS5jb20wHhcNMjUwMjI1MTI0MDI0WhcNMjUwMjI2
MTI0MDI0WjBmMSMwIQYDVQQKDBpSYWRpYXRvciBEZW1vIENlcnRpZmljYXRlczEh
MB8GA1UECwwYVGVzdCBDZXJ0aWZpY2F0ZSBTZWN0aW9uMRwwGgYDVQQDDBNleHBp
cmVkLmV4YW1wbGUuY29tMFkwEwYHKoZIzj0CAQYIKoZIzj0DAQcDQgAEZtJW4y0y
HW6Cm/9BfvHjet99yx9/7KZZ+lGc2ogFheUWlDpbWJleESYN8TFS8j41/K4+t9Pw
qT7KLKMqsJ71U6OB+DCB9TAMBgNVHRMBAf8EAjAAMAsGA1UdDwQEAwIFoDAdBgNV
HSUEFjAUBggrBgEFBQcDAgYIKwYBBQUHAwEweQYDVR0RBHIwcIcEwAACPYcQIAEN
uAFIAQAAAAAAAAAAYYITZXhwaXJlZC5leGFtcGxlLmNvbYYbaHR0cHM6Ly9leHBp
cmVkLmV4YW1wbGUuY29tgSRleHBpcmVkQHJhZGlhdG9yc29mdHdhcmUuZXhhbXBs
ZS5jb20wHQYDVR0OBBYEFCrZ7YQkDbo477pC/cdQCX4uA1D9MB8GA1UdIwQYMBaA
FJhWHtiOakOIh8b/v/zJqI6A53dqMAoGCCqGSM49BAMCA0gAMEUCICGlxnW7KXXZ
xH+yoMh8VXmGFScRaDIHGu/6mKIYmOUHAiEA1FA78zxWlJLOV4uHC22JJNySwmN4
pRV/XpkjT4uvMcg=
-----END CERTIFICATE-----
