Certificate:
    Data:
        Version: 3 (0x2)
        Serial Number: 138059851010 (0x2025022502)
        Signature Algorithm: ecdsa-with-SHA256
        Issuer: O = Radiator Demo Certificates, OU = Test Certificate Section, CN = Radiator Test Intermediate CA I1 (do not use in production)
        Validity
            Not Before: Feb 25 12:40:28 2025 GMT
            Not After : Feb 25 12:40:28 2027 GMT
        Subject: O = Radiator Demo Certificates, OU = Test Certificate Section, CN = test.server.example.com
        Subject Public Key Info:
            Public Key Algorithm: id-ecPublicKey
                Public-Key: (256 bit)
                pub:
                    04:ea:97:c3:14:81:e4:59:7c:31:f9:c2:82:09:65:
                    81:1d:74:fc:ca:22:58:69:ff:6e:84:1f:3f:b7:d8:
                    d3:cc:16:2c:bf:43:aa:1f:30:9f:93:fa:98:d6:86:
                    90:8b:22:83:cf:8a:cb:25:9b:4b:25:b1:11:30:93:
                    c1:c8:2e:d6:60
                ASN1 OID: prime256v1
                NIST CURVE: P-256
        X509v3 extensions:
            X509v3 Basic Constraints: critical
                CA:FALSE
            X509v3 Key Usage: 
                Digital Signature, Key Encipherment
            X509v3 Extended Key Usage: 
                TLS Web Server Authentication
            X509v3 Subject Alternative Name: 
                IP Address:192.0.2.101, IP Address:2001:DB8:148:100:0:0:0:101, DNS:test.server.example.com, URI:https://test.server.example.com
            X509v3 Subject Key Identifier: 
                6C:0F:ED:B3:F1:54:4F:B1:66:20:39:2D:45:D8:7A:54:27:B7:3D:20
            X509v3 Authority Key Identifier: 
                87:B3:F3:C0:22:FB:85:FF:CF:2C:CB:34:6A:6C:39:4C:0D:97:4A:CD
    Signature Algorithm: ecdsa-with-SHA256
    Signature Value:
        30:45:02:20:5d:36:05:69:0c:4c:c0:4d:fe:0d:9f:d8:0c:5c:
        22:aa:e8:99:20:3a:5b:0e:5f:5e:ad:c8:38:a0:7f:df:be:84:
        02:21:00:ac:5a:0d:09:58:d7:1d:a3:d0:a4:be:04:94:7e:4c:
        6d:07:f4:5a:d8:3b:d8:d9:c0:61:92:e7:4e:60:87:3c:f9
-----BEGIN CERTIFICATE-----
MIICvTCCAmOgAwIBAgIFICUCJQIwCgYIKoZIzj0EAwIwgY4xIzAhBgNVBAoMGlJh
ZGlhdG9yIERlbW8gQ2VydGlmaWNhdGVzMSEwHwYDVQQLDBhUZXN0IENlcnRpZmlj
YXRlIFNlY3Rpb24xRDBCBgNVBAMMO1JhZGlhdG9yIFRlc3QgSW50ZXJtZWRpYXRl
IENBIEkxIChkbyBub3QgdXNlIGluIHByb2R1Y3Rpb24pMB4XDTI1MDIyNTEyNDAy
OFoXDTI3MDIyNTEyNDAyOFowajEjMCEGA1UECgwaUmFkaWF0b3IgRGVtbyBDZXJ0
aWZpY2F0ZXMxITAfBgNVBAsMGFRlc3QgQ2VydGlmaWNhdGUgU2VjdGlvbjEgMB4G
A1UEAwwXdGVzdC5zZXJ2ZXIuZXhhbXBsZS5jb20wWTATBgcqhkjOPQIBBggqhkjO
PQMBBwNCAATql8MUgeRZfDH5woIJZYEddPzKIlhp/26EHz+32NPMFiy/Q6ofMJ+T
+pjWhpCLIoPPisslm0slsREwk8HILtZgo4HQMIHNMAwGA1UdEwEB/wQCMAAwCwYD
VR0PBAQDAgWgMBMGA1UdJQQMMAoGCCsGAQUFBwMBMFsGA1UdEQRUMFKHBMAAAmWH
ECABDbgBSAEAAAAAAAAAAQGCF3Rlc3Quc2VydmVyLmV4YW1wbGUuY29thh9odHRw
czovL3Rlc3Quc2VydmVyLmV4YW1wbGUuY29tMB0GA1UdDgQWBBRsD+2z8VRPsWYg
OS1F2HpUJ7c9IDAfBgNVHSMEGDAWgBSHs/PAIvuF/88syzRqbDlMDZdKzTAKBggq
hkjOPQQDAgNIADBFAiBdNgVpDEzATf4Nn9gMXCKq6JkgOlsOX16tyDigf9++hAIh
AKxaDQlY1x2j0KS+BJR+TG0H9FrYO9jZwGGS505ghzz5
-----END CERTIFICATE-----
