Certificate:
    Data:
        Version: 3 (0x2)
        Serial Number: 138059851009 (0x2025022501)
        Signature Algorithm: ecdsa-with-SHA256
        Issuer: O = Radiator Demo Certificates, OU = Test Certificate Section, CN = Radiator Test Intermediate CA I2 (do not use in production)
        Validity
            Not Before: Feb 25 12:40:32 2025 GMT
            Not After : Feb 25 12:40:32 2027 GMT
        Subject: O = Radiator Demo Certificates, OU = Test Certificate Section, CN = testUser
        Subject Public Key Info:
            Public Key Algorithm: id-ecPublicKey
                Public-Key: (256 bit)
                pub:
                    04:55:4f:bf:07:4c:8b:78:65:54:dc:28:1e:8a:b8:
                    e8:99:4c:bc:23:40:63:c3:9a:3b:ba:ad:45:2e:f2:
                    43:9f:55:05:e7:4b:95:61:76:b2:30:26:f9:03:9b:
                    dd:48:6c:82:03:d4:77:2e:19:0f:58:61:8b:c4:ac:
                    2a:e4:8e:ff:f7
                ASN1 OID: prime256v1
                NIST CURVE: P-256
        X509v3 extensions:
            X509v3 Basic Constraints: critical
                CA:FALSE
            X509v3 Key Usage: 
                Digital Signature
            X509v3 Extended Key Usage: 
                TLS Web Client Authentication
            X509v3 Subject Alternative Name: 
                IP Address:192.0.2.31, IP Address:2001:DB8:148:100:0:0:0:31, email:testUser@radiatorsoftware.example.com
            X509v3 Subject Key Identifier: 
                9D:28:92:C2:C6:73:0B:D7:EE:8B:06:9D:11:5F:FE:5E:77:D1:DC:7F
            X509v3 Authority Key Identifier: 
                5C:8F:B3:D9:9E:AB:D6:9C:6F:88:4F:A4:AA:B4:42:B5:29:2F:2F:6B
    Signature Algorithm: ecdsa-with-SHA256
    Signature Value:
        30:46:02:21:00:8b:42:5d:69:61:39:b5:0c:24:fb:31:62:9c:
        dc:a3:f5:6d:2f:71:01:53:9c:28:0b:6b:ab:d9:23:0c:ea:ba:
        7b:02:21:00:80:33:ff:fd:39:b0:3d:50:c4:46:84:8d:1e:ee:
        26:cd:12:74:5f:96:ab:cb:8e:83:f7:1b:db:55:d2:a1:d4:4b
-----BEGIN CERTIFICATE-----
MIICnDCCAkGgAwIBAgIFICUCJQEwCgYIKoZIzj0EAwIwgY4xIzAhBgNVBAoMGlJh
ZGlhdG9yIERlbW8gQ2VydGlmaWNhdGVzMSEwHwYDVQQLDBhUZXN0IENlcnRpZmlj
YXRlIFNlY3Rpb24xRDBCBgNVBAMMO1JhZGlhdG9yIFRlc3QgSW50ZXJtZWRpYXRl
IENBIEkyIChkbyBub3QgdXNlIGluIHByb2R1Y3Rpb24pMB4XDTI1MDIyNTEyNDAz
MloXDTI3MDIyNTEyNDAzMlowWzEjMCEGA1UECgwaUmFkaWF0b3IgRGVtbyBDZXJ0
aWZpY2F0ZXMxITAfBgNVBAsMGFRlc3QgQ2VydGlmaWNhdGUgU2VjdGlvbjERMA8G
A1UEAwwIdGVzdFVzZXIwWTATBgcqhkjOPQIBBggqhkjOPQMBBwNCAARVT78HTIt4
ZVTcKB6KuOiZTLwjQGPDmju6rUUu8kOfVQXnS5VhdrIwJvkDm91IbIID1HcuGQ9Y
YYvErCrkjv/3o4G9MIG6MAwGA1UdEwEB/wQCMAAwCwYDVR0PBAQDAgeAMBMGA1Ud
JQQMMAoGCCsGAQUFBwMCMEgGA1UdEQRBMD+HBMAAAh+HECABDbgBSAEAAAAAAAAA
ADGBJXRlc3RVc2VyQHJhZGlhdG9yc29mdHdhcmUuZXhhbXBsZS5jb20wHQYDVR0O
BBYEFJ0oksLGcwvX7osGnRFf/l530dx/MB8GA1UdIwQYMBaAFFyPs9meq9acb4hP
pKq0QrUpLy9rMAoGCCqGSM49BAMCA0kAMEYCIQCLQl1pYTm1DCT7MWKc3KP1bS9x
AVOcKAtrq9kjDOq6ewIhAIAz//05sD1QxEaEjR7uJs0SdF+Wq8uOg/cb21XSodRL
-----END CERTIFICATE-----
