Certificate:
    Data:
        Version: 3 (0x2)
        Serial Number: 138059851009 (0x2025022501)
        Signature Algorithm: ecdsa-with-SHA256
        Issuer: O = Radiator Demo Certificates, OU = Test Certificate Section, CN = Radiator Test Intermediate CA I1 (do not use in production)
        Validity
            Not Before: Feb 25 12:40:28 2025 GMT
            Not After : Feb 25 12:40:28 2027 GMT
        Subject: O = Radiator Demo Certificates, OU = Test Certificate Section, CN = testUser
        Subject Public Key Info:
            Public Key Algorithm: id-ecPublicKey
                Public-Key: (256 bit)
                pub:
                    04:55:4f:bf:07:4c:8b:78:65:54:dc:28:1e:8a:b8:
                    e8:99:4c:bc:23:40:63:c3:9a:3b:ba:ad:45:2e:f2:
                    43:9f:55:05:e7:4b:95:61:76:b2:30:26:f9:03:9b:
                    dd:48:6c:82:03:d4:77:2e:19:0f:58:61:8b:c4:ac:
                    2a:e4:8e:ff:f7
                ASN1 OID: prime256v1
                NIST CURVE: P-256
        X509v3 extensions:
            X509v3 Basic Constraints: critical
                CA:FALSE
            X509v3 Key Usage: 
                Digital Signature
            X509v3 Extended Key Usage: 
                TLS Web Client Authentication
            X509v3 Subject Alternative Name: 
                IP Address:192.0.2.31, IP Address:2001:DB8:148:100:0:0:0:31, email:testUser@radiatorsoftware.example.com
            X509v3 Subject Key Identifier: 
                9D:28:92:C2:C6:73:0B:D7:EE:8B:06:9D:11:5F:FE:5E:77:D1:DC:7F
            X509v3 Authority Key Identifier: 
                87:B3:F3:C0:22:FB:85:FF:CF:2C:CB:34:6A:6C:39:4C:0D:97:4A:CD
    Signature Algorithm: ecdsa-with-SHA256
    Signature Value:
        30:46:02:21:00:af:96:ef:39:7e:f1:a9:7e:3c:aa:1c:cb:9a:
        1c:bb:f1:5f:d8:2e:83:04:89:5b:ee:a7:41:04:64:9f:6d:3e:
        25:02:21:00:bb:bf:37:49:59:f2:17:b0:e0:c2:7e:a3:76:ed:
        a4:e0:e4:e9:be:96:2e:26:5e:73:9f:8f:e1:38:e8:f4:2b:d9
-----BEGIN CERTIFICATE-----
MIICnDCCAkGgAwIBAgIFICUCJQEwCgYIKoZIzj0EAwIwgY4xIzAhBgNVBAoMGlJh
ZGlhdG9yIERlbW8gQ2VydGlmaWNhdGVzMSEwHwYDVQQLDBhUZXN0IENlcnRpZmlj
YXRlIFNlY3Rpb24xRDBCBgNVBAMMO1JhZGlhdG9yIFRlc3QgSW50ZXJtZWRpYXRl
IENBIEkxIChkbyBub3QgdXNlIGluIHByb2R1Y3Rpb24pMB4XDTI1MDIyNTEyNDAy
OFoXDTI3MDIyNTEyNDAyOFowWzEjMCEGA1UECgwaUmFkaWF0b3IgRGVtbyBDZXJ0
aWZpY2F0ZXMxITAfBgNVBAsMGFRlc3QgQ2VydGlmaWNhdGUgU2VjdGlvbjERMA8G
A1UEAwwIdGVzdFVzZXIwWTATBgcqhkjOPQIBBggqhkjOPQMBBwNCAARVT78HTIt4
ZVTcKB6KuOiZTLwjQGPDmju6rUUu8kOfVQXnS5VhdrIwJvkDm91IbIID1HcuGQ9Y
YYvErCrkjv/3o4G9MIG6MAwGA1UdEwEB/wQCMAAwCwYDVR0PBAQDAgeAMBMGA1Ud
JQQMMAoGCCsGAQUFBwMCMEgGA1UdEQRBMD+HBMAAAh+HECABDbgBSAEAAAAAAAAA
ADGBJXRlc3RVc2VyQHJhZGlhdG9yc29mdHdhcmUuZXhhbXBsZS5jb20wHQYDVR0O
BBYEFJ0oksLGcwvX7osGnRFf/l530dx/MB8GA1UdIwQYMBaAFIez88Ai+4X/zyzL
NGpsOUwNl0rNMAoGCCqGSM49BAMCA0kAMEYCIQCvlu85fvGpfjyqHMuaHLvxX9gu
gwSJW+6nQQRkn20+JQIhALu/N0lZ8hew4MJ+o3btpODk6b6WLiZec5+P4Tjo9CvZ
-----END CERTIFICATE-----
