Certificate:
    Data:
        Version: 3 (0x2)
        Serial Number: 138059851008 (0x2025022500)
        Signature Algorithm: ecdsa-with-SHA512
        Issuer: O = Radiator Demo Certificates, OU = Test Certificate Section, CN = Radiator Test CA (do not use in production), emailAddress = testUser@radiatorsoftware.example.com
        Validity
            Not Before: Feb 25 12:40:20 2025 GMT
            Not After : Feb 25 12:40:20 2027 GMT
        Subject: O = Radiator Demo Certificates, OU = Test Certificate Section, CN = Radiator Test CA (do not use in production), emailAddress = testUser@radiatorsoftware.example.com
        Subject Public Key Info:
            Public Key Algorithm: id-ecPublicKey
                Public-Key: (256 bit)
                pub:
                    04:34:45:25:1e:5c:f8:d0:32:db:61:39:9f:f2:dd:
                    6d:f4:0f:bc:db:10:d0:b9:09:c4:64:94:68:6d:87:
                    6a:09:12:04:2d:f5:f0:34:19:d8:61:12:22:17:cd:
                    f2:23:3a:32:29:c3:f1:11:24:e9:05:8b:52:84:95:
                    f3:38:d1:1b:f0
                ASN1 OID: prime256v1
                NIST CURVE: P-256
        X509v3 extensions:
            X509v3 Basic Constraints: critical
                CA:TRUE
            X509v3 Key Usage: critical
                Certificate Sign, CRL Sign
            X509v3 Subject Key Identifier: 
                98:56:1E:D8:8E:6A:43:88:87:C6:FF:BF:FC:C9:A8:8E:80:E7:77:6A
            X509v3 Authority Key Identifier: 
                DirName:/O=Radiator Demo Certificates/OU=Test Certificate Section/CN=Radiator Test CA (do not use in production)/emailAddress=testUser@radiatorsoftware.example.com
                serial:20:25:02:25:00
    Signature Algorithm: ecdsa-with-SHA512
    Signature Value:
        30:45:02:20:20:a5:e7:c1:02:4d:73:58:f1:42:79:18:55:51:
        a1:6f:3c:3c:c8:f0:fa:63:50:17:f9:35:57:40:de:80:3b:25:
        02:21:00:cd:aa:6a:4c:4b:2a:cd:a4:15:c2:26:d9:fa:4f:a0:
        cf:0f:d3:17:ec:e9:06:15:51:e2:7c:e6:eb:4b:49:dc:27
-----BEGIN CERTIFICATE-----
MIIDdTCCAxugAwIBAgIFICUCJQAwCgYIKoZIzj0EAwQwgbQxIzAhBgNVBAoMGlJh
ZGlhdG9yIERlbW8gQ2VydGlmaWNhdGVzMSEwHwYDVQQLDBhUZXN0IENlcnRpZmlj
YXRlIFNlY3Rpb24xNDAyBgNVBAMMK1JhZGlhdG9yIFRlc3QgQ0EgKGRvIG5vdCB1
c2UgaW4gcHJvZHVjdGlvbikxNDAyBgkqhkiG9w0BCQEWJXRlc3RVc2VyQHJhZGlh
dG9yc29mdHdhcmUuZXhhbXBsZS5jb20wHhcNMjUwMjI1MTI0MDIwWhcNMjcwMjI1
MTI0MDIwWjCBtDEjMCEGA1UECgwaUmFkaWF0b3IgRGVtbyBDZXJ0aWZpY2F0ZXMx
ITAfBgNVBAsMGFRlc3QgQ2VydGlmaWNhdGUgU2VjdGlvbjE0MDIGA1UEAwwrUmFk
aWF0b3IgVGVzdCBDQSAoZG8gbm90IHVzZSBpbiBwcm9kdWN0aW9uKTE0MDIGCSqG
SIb3DQEJARYldGVzdFVzZXJAcmFkaWF0b3Jzb2Z0d2FyZS5leGFtcGxlLmNvbTBZ
MBMGByqGSM49AgEGCCqGSM49AwEHA0IABDRFJR5c+NAy22E5n/LdbfQPvNsQ0LkJ
xGSUaG2HagkSBC318DQZ2GESIhfN8iM6MinD8REk6QWLUoSV8zjRG/CjggEWMIIB
EjAPBgNVHRMBAf8EBTADAQH/MA4GA1UdDwEB/wQEAwIBBjAdBgNVHQ4EFgQUmFYe
2I5qQ4iHxv+//MmojoDnd2owgc8GA1UdIwSBxzCBxKGBuqSBtzCBtDEjMCEGA1UE
CgwaUmFkaWF0b3IgRGVtbyBDZXJ0aWZpY2F0ZXMxITAfBgNVBAsMGFRlc3QgQ2Vy
dGlmaWNhdGUgU2VjdGlvbjE0MDIGA1UEAwwrUmFkaWF0b3IgVGVzdCBDQSAoZG8g
bm90IHVzZSBpbiBwcm9kdWN0aW9uKTE0MDIGCSqGSIb3DQEJARYldGVzdFVzZXJA
cmFkaWF0b3Jzb2Z0d2FyZS5leGFtcGxlLmNvbYIFICUCJQAwCgYIKoZIzj0EAwQD
SAAwRQIgIKXnwQJNc1jxQnkYVVGhbzw8yPD6Y1AX+TVXQN6AOyUCIQDNqmpMSyrN
pBXCJtn6T6DPD9MX7OkGFVHifObrS0ncJw==
-----END CERTIFICATE-----
