Certificate:
    Data:
        Version: 3 (0x2)
        Serial Number: 138059851010 (0x2025022502)
        Signature Algorithm: ecdsa-with-SHA256
        Issuer: O = Radiator Demo Certificates, OU = Test Certificate Section, CN = Radiator Test Intermediate CA I1 (do not use in production)
        Validity
            Not Before: Feb 25 12:40:28 2025 GMT
            Not After : Feb 25 12:40:28 2027 GMT
        Subject: O = Radiator Demo Certificates, OU = Test Certificate Section, CN = test.server.example.com
        Subject Public Key Info:
            Public Key Algorithm: id-ecPublicKey
                Public-Key: (256 bit)
                pub:
                    04:ea:97:c3:14:81:e4:59:7c:31:f9:c2:82:09:65:
                    81:1d:74:fc:ca:22:58:69:ff:6e:84:1f:3f:b7:d8:
                    d3:cc:16:2c:bf:43:aa:1f:30:9f:93:fa:98:d6:86:
                    90:8b:22:83:cf:8a:cb:25:9b:4b:25:b1:11:30:93:
                    c1:c8:2e:d6:60
                ASN1 OID: prime256v1
                NIST CURVE: P-256
        X509v3 extensions:
            X509v3 Basic Constraints: critical
                CA:FALSE
            X509v3 Key Usage: 
                Digital Signature, Key Encipherment
            X509v3 Extended Key Usage: 
                TLS Web Server Authentication
            X509v3 Subject Alternative Name: 
                IP Address:192.0.2.101, IP Address:2001:DB8:148:100:0:0:0:101, DNS:test.server.example.com, URI:https://test.server.example.com
            X509v3 Subject Key Identifier: 
                6C:0F:ED:B3:F1:54:4F:B1:66:20:39:2D:45:D8:7A:54:27:B7:3D:20
            X509v3 Authority Key Identifier: 
                87:B3:F3:C0:22:FB:85:FF:CF:2C:CB:34:6A:6C:39:4C:0D:97:4A:CD
    Signature Algorithm: ecdsa-with-SHA256
    Signature Value:
        30:45:02:20:5d:36:05:69:0c:4c:c0:4d:fe:0d:9f:d8:0c:5c:
        22:aa:e8:99:20:3a:5b:0e:5f:5e:ad:c8:38:a0:7f:df:be:84:
        02:21:00:ac:5a:0d:09:58:d7:1d:a3:d0:a4:be:04:94:7e:4c:
        6d:07:f4:5a:d8:3b:d8:d9:c0:61:92:e7:4e:60:87:3c:f9
-----BEGIN CERTIFICATE-----
MIICvTCCAmOgAwIBAgIFICUCJQIwCgYIKoZIzj0EAwIwgY4xIzAhBgNVBAoMGlJh
ZGlhdG9yIERlbW8gQ2VydGlmaWNhdGVzMSEwHwYDVQQLDBhUZXN0IENlcnRpZmlj
YXRlIFNlY3Rpb24xRDBCBgNVBAMMO1JhZGlhdG9yIFRlc3QgSW50ZXJtZWRpYXRl
IENBIEkxIChkbyBub3QgdXNlIGluIHByb2R1Y3Rpb24pMB4XDTI1MDIyNTEyNDAy
OFoXDTI3MDIyNTEyNDAyOFowajEjMCEGA1UECgwaUmFkaWF0b3IgRGVtbyBDZXJ0
aWZpY2F0ZXMxITAfBgNVBAsMGFRlc3QgQ2VydGlmaWNhdGUgU2VjdGlvbjEgMB4G
A1UEAwwXdGVzdC5zZXJ2ZXIuZXhhbXBsZS5jb20wWTATBgcqhkjOPQIBBggqhkjO
PQMBBwNCAATql8MUgeRZfDH5woIJZYEddPzKIlhp/26EHz+32NPMFiy/Q6ofMJ+T
+pjWhpCLIoPPisslm0slsREwk8HILtZgo4HQMIHNMAwGA1UdEwEB/wQCMAAwCwYD
VR0PBAQDAgWgMBMGA1UdJQQMMAoGCCsGAQUFBwMBMFsGA1UdEQRUMFKHBMAAAmWH
ECABDbgBSAEAAAAAAAAAAQGCF3Rlc3Quc2VydmVyLmV4YW1wbGUuY29thh9odHRw
czovL3Rlc3Quc2VydmVyLmV4YW1wbGUuY29tMB0GA1UdDgQWBBRsD+2z8VRPsWYg
OS1F2HpUJ7c9IDAfBgNVHSMEGDAWgBSHs/PAIvuF/88syzRqbDlMDZdKzTAKBggq
hkjOPQQDAgNIADBFAiBdNgVpDEzATf4Nn9gMXCKq6JkgOlsOX16tyDigf9++hAIh
AKxaDQlY1x2j0KS+BJR+TG0H9FrYO9jZwGGS505ghzz5
-----END CERTIFICATE-----
Certificate:
    Data:
        Version: 3 (0x2)
        Serial Number: 138059851012 (0x2025022504)
        Signature Algorithm: ecdsa-with-SHA256
        Issuer: O = Radiator Demo Certificates, OU = Test Certificate Section, CN = Radiator Test CA (do not use in production), emailAddress = testUser@radiatorsoftware.example.com
        Validity
            Not Before: Feb 25 12:40:24 2025 GMT
            Not After : Feb 25 12:40:24 2027 GMT
        Subject: O = Radiator Demo Certificates, OU = Test Certificate Section, CN = Radiator Test Intermediate CA I1 (do not use in production)
        Subject Public Key Info:
            Public Key Algorithm: id-ecPublicKey
                Public-Key: (256 bit)
                pub:
                    04:44:f0:54:97:43:6b:dc:ba:eb:09:51:86:fa:8a:
                    cb:56:88:91:6f:d9:14:32:ca:0a:9f:60:22:2b:dc:
                    90:dc:93:2c:c9:cb:99:96:96:a4:8f:2f:0b:1a:7a:
                    63:a7:9e:94:c3:14:67:b1:3f:b4:f4:86:0d:8b:f9:
                    01:6a:e2:79:8a
                ASN1 OID: prime256v1
                NIST CURVE: P-256
        X509v3 extensions:
            X509v3 Basic Constraints: critical
                CA:TRUE, pathlen:0
            X509v3 Key Usage: critical
                Certificate Sign, CRL Sign
            X509v3 Subject Key Identifier: 
                87:B3:F3:C0:22:FB:85:FF:CF:2C:CB:34:6A:6C:39:4C:0D:97:4A:CD
            X509v3 Authority Key Identifier: 
                98:56:1E:D8:8E:6A:43:88:87:C6:FF:BF:FC:C9:A8:8E:80:E7:77:6A
    Signature Algorithm: ecdsa-with-SHA256
    Signature Value:
        30:44:02:20:16:da:a2:91:b6:71:03:bb:bd:f3:dc:95:cf:c8:
        ad:26:16:10:9a:23:80:9c:c7:f0:bf:1b:22:47:ab:52:1c:9d:
        02:20:4a:d8:a4:b1:dc:78:d6:e7:f5:d2:08:8f:fa:22:4b:6b:
        1d:de:89:71:21:42:19:ef:22:56:29:ae:9b:18:59:f1
-----BEGIN CERTIFICATE-----
MIICnDCCAkOgAwIBAgIFICUCJQQwCgYIKoZIzj0EAwIwgbQxIzAhBgNVBAoMGlJh
ZGlhdG9yIERlbW8gQ2VydGlmaWNhdGVzMSEwHwYDVQQLDBhUZXN0IENlcnRpZmlj
YXRlIFNlY3Rpb24xNDAyBgNVBAMMK1JhZGlhdG9yIFRlc3QgQ0EgKGRvIG5vdCB1
c2UgaW4gcHJvZHVjdGlvbikxNDAyBgkqhkiG9w0BCQEWJXRlc3RVc2VyQHJhZGlh
dG9yc29mdHdhcmUuZXhhbXBsZS5jb20wHhcNMjUwMjI1MTI0MDI0WhcNMjcwMjI1
MTI0MDI0WjCBjjEjMCEGA1UECgwaUmFkaWF0b3IgRGVtbyBDZXJ0aWZpY2F0ZXMx
ITAfBgNVBAsMGFRlc3QgQ2VydGlmaWNhdGUgU2VjdGlvbjFEMEIGA1UEAww7UmFk
aWF0b3IgVGVzdCBJbnRlcm1lZGlhdGUgQ0EgSTEgKGRvIG5vdCB1c2UgaW4gcHJv
ZHVjdGlvbikwWTATBgcqhkjOPQIBBggqhkjOPQMBBwNCAARE8FSXQ2vcuusJUYb6
istWiJFv2RQyygqfYCIr3JDckyzJy5mWlqSPLwsaemOnnpTDFGexP7T0hg2L+QFq
4nmKo2YwZDASBgNVHRMBAf8ECDAGAQH/AgEAMA4GA1UdDwEB/wQEAwIBBjAdBgNV
HQ4EFgQUh7PzwCL7hf/PLMs0amw5TA2XSs0wHwYDVR0jBBgwFoAUmFYe2I5qQ4iH
xv+//MmojoDnd2owCgYIKoZIzj0EAwIDRwAwRAIgFtqikbZxA7u989yVz8itJhYQ
miOAnMfwvxsiR6tSHJ0CIErYpLHceNbn9dIIj/oiS2sd3olxIUIZ7yJWKa6bGFnx
-----END CERTIFICATE-----
-----BEGIN ENCRYPTED PRIVATE KEY-----
MIHjME4GCSqGSIb3DQEFDTBBMCkGCSqGSIb3DQEFDDAcBAg8Ztgnx10YRwICCAAw
DAYIKoZIhvcNAgkFADAUBggqhkiG9w0DBwQIB3o9l4Wl6O4EgZCFeBmDIKA/vUmk
yU+mMm5M9HogR7e9F7gv9++U9dqDofSNjYuV0sQ0vhZ8G9MZyS6BkXMDoJ/pfXxA
SIuEDpSWabhQMSlmIhClmYtPZdd6i6KiKN/HpCxo1AKmRb0yuQa4K2W8Sq3dFzvB
uce4xgpJSejmUfMyuX4CB1V3n5ZcXk45mpfyuQuJoywh5aPUhrA=
-----END ENCRYPTED PRIVATE KEY-----
