Certificate:
    Data:
        Version: 3 (0x2)
        Serial Number: 138059851010 (0x2025022502)
        Signature Algorithm: ecdsa-with-SHA256
        Issuer: O = Radiator Demo Certificates, OU = Test Certificate Section, CN = Radiator Test CA (do not use in production), emailAddress = testUser@radiatorsoftware.example.com
        Validity
            Not Before: Feb 25 12:40:24 2025 GMT
            Not After : Feb 25 12:40:24 2027 GMT
        Subject: O = Radiator Demo Certificates, OU = Test Certificate Section, CN = test.server.example.com
        Subject Public Key Info:
            Public Key Algorithm: id-ecPublicKey
                Public-Key: (256 bit)
                pub:
                    04:ea:97:c3:14:81:e4:59:7c:31:f9:c2:82:09:65:
                    81:1d:74:fc:ca:22:58:69:ff:6e:84:1f:3f:b7:d8:
                    d3:cc:16:2c:bf:43:aa:1f:30:9f:93:fa:98:d6:86:
                    90:8b:22:83:cf:8a:cb:25:9b:4b:25:b1:11:30:93:
                    c1:c8:2e:d6:60
                ASN1 OID: prime256v1
                NIST CURVE: P-256
        X509v3 extensions:
            X509v3 Basic Constraints: critical
                CA:FALSE
            X509v3 Key Usage: 
                Digital Signature, Key Encipherment
            X509v3 Extended Key Usage: 
                TLS Web Server Authentication
            X509v3 Subject Alternative Name: 
                IP Address:192.0.2.101, IP Address:2001:DB8:148:100:0:0:0:101, DNS:test.server.example.com, URI:https://test.server.example.com
            X509v3 Subject Key Identifier: 
                6C:0F:ED:B3:F1:54:4F:B1:66:20:39:2D:45:D8:7A:54:27:B7:3D:20
            X509v3 Authority Key Identifier: 
                98:56:1E:D8:8E:6A:43:88:87:C6:FF:BF:FC:C9:A8:8E:80:E7:77:6A
    Signature Algorithm: ecdsa-with-SHA256
    Signature Value:
        30:44:02:20:72:4a:78:cb:e5:f3:75:15:80:4a:48:e6:b6:a3:
        72:c0:98:7a:d8:0f:72:d4:2e:df:e6:19:b4:68:d7:1c:03:40:
        02:20:67:48:77:1f:b6:10:c4:28:ac:01:f9:7c:bd:16:41:72:
        6c:ad:65:26:67:74:04:03:fb:39:d6:f0:ab:6c:fb:65
-----BEGIN CERTIFICATE-----
MIIC4jCCAomgAwIBAgIFICUCJQIwCgYIKoZIzj0EAwIwgbQxIzAhBgNVBAoMGlJh
ZGlhdG9yIERlbW8gQ2VydGlmaWNhdGVzMSEwHwYDVQQLDBhUZXN0IENlcnRpZmlj
YXRlIFNlY3Rpb24xNDAyBgNVBAMMK1JhZGlhdG9yIFRlc3QgQ0EgKGRvIG5vdCB1
c2UgaW4gcHJvZHVjdGlvbikxNDAyBgkqhkiG9w0BCQEWJXRlc3RVc2VyQHJhZGlh
dG9yc29mdHdhcmUuZXhhbXBsZS5jb20wHhcNMjUwMjI1MTI0MDI0WhcNMjcwMjI1
MTI0MDI0WjBqMSMwIQYDVQQKDBpSYWRpYXRvciBEZW1vIENlcnRpZmljYXRlczEh
MB8GA1UECwwYVGVzdCBDZXJ0aWZpY2F0ZSBTZWN0aW9uMSAwHgYDVQQDDBd0ZXN0
LnNlcnZlci5leGFtcGxlLmNvbTBZMBMGByqGSM49AgEGCCqGSM49AwEHA0IABOqX
wxSB5Fl8MfnCggllgR10/MoiWGn/boQfP7fY08wWLL9Dqh8wn5P6mNaGkIsig8+K
yyWbSyWxETCTwcgu1mCjgdAwgc0wDAYDVR0TAQH/BAIwADALBgNVHQ8EBAMCBaAw
EwYDVR0lBAwwCgYIKwYBBQUHAwEwWwYDVR0RBFQwUocEwAACZYcQIAENuAFIAQAA
AAAAAAABAYIXdGVzdC5zZXJ2ZXIuZXhhbXBsZS5jb22GH2h0dHBzOi8vdGVzdC5z
ZXJ2ZXIuZXhhbXBsZS5jb20wHQYDVR0OBBYEFGwP7bPxVE+xZiA5LUXYelQntz0g
MB8GA1UdIwQYMBaAFJhWHtiOakOIh8b/v/zJqI6A53dqMAoGCCqGSM49BAMCA0cA
MEQCIHJKeMvl83UVgEpI5rajcsCYetgPctQu3+YZtGjXHANAAiBnSHcfthDEKKwB
+Xy9FkFybK1lJmd0BAP7Odbwq2z7ZQ==
-----END CERTIFICATE-----
