Certificate:
    Data:
        Version: 3 (0x2)
        Serial Number: 138059851011 (0x2025022503)
        Signature Algorithm: ecdsa-with-SHA256
        Issuer: O = Radiator Demo Certificates, OU = Test Certificate Section, CN = Radiator Test Intermediate CA I2 (do not use in production)
        Validity
            Not Before: Feb 25 12:40:32 2025 GMT
            Not After : Feb 26 12:40:32 2025 GMT
        Subject: O = Radiator Demo Certificates, OU = Test Certificate Section, CN = expired.example.com
        Subject Public Key Info:
            Public Key Algorithm: id-ecPublicKey
                Public-Key: (256 bit)
                pub:
                    04:66:d2:56:e3:2d:32:1d:6e:82:9b:ff:41:7e:f1:
                    e3:7a:df:7d:cb:1f:7f:ec:a6:59:fa:51:9c:da:88:
                    05:85:e5:16:94:3a:5b:58:99:5e:11:26:0d:f1:31:
                    52:f2:3e:35:fc:ae:3e:b7:d3:f0:a9:3e:ca:2c:a3:
                    2a:b0:9e:f5:53
                ASN1 OID: prime256v1
                NIST CURVE: P-256
        X509v3 extensions:
            X509v3 Basic Constraints: critical
                CA:FALSE
            X509v3 Key Usage: 
                Digital Signature, Key Encipherment
            X509v3 Extended Key Usage: 
                TLS Web Client Authentication, TLS Web Server Authentication
            X509v3 Subject Alternative Name: 
                IP Address:192.0.2.61, IP Address:2001:DB8:148:100:0:0:0:61, DNS:expired.example.com, URI:https://expired.example.com, email:expired@radiatorsoftware.example.com
            X509v3 Subject Key Identifier: 
                2A:D9:ED:84:24:0D:BA:38:EF:BA:42:FD:C7:50:09:7E:2E:03:50:FD
            X509v3 Authority Key Identifier: 
                5C:8F:B3:D9:9E:AB:D6:9C:6F:88:4F:A4:AA:B4:42:B5:29:2F:2F:6B
    Signature Algorithm: ecdsa-with-SHA256
    Signature Value:
        30:46:02:21:00:a0:87:b0:60:1d:70:79:e5:8d:d3:66:ea:9d:
        ed:c5:97:2e:07:88:c9:3a:bb:c6:82:04:3a:7b:6f:a3:fa:2e:
        29:02:21:00:d1:d7:e3:65:6b:d1:37:1f:3c:43:4c:e3:58:7c:
        51:84:e9:12:9e:b6:34:88:f7:33:9f:d2:66:8f:67:1f:61:38
-----BEGIN CERTIFICATE-----
MIIC4jCCAoegAwIBAgIFICUCJQMwCgYIKoZIzj0EAwIwgY4xIzAhBgNVBAoMGlJh
ZGlhdG9yIERlbW8gQ2VydGlmaWNhdGVzMSEwHwYDVQQLDBhUZXN0IENlcnRpZmlj
YXRlIFNlY3Rpb24xRDBCBgNVBAMMO1JhZGlhdG9yIFRlc3QgSW50ZXJtZWRpYXRl
IENBIEkyIChkbyBub3QgdXNlIGluIHByb2R1Y3Rpb24pMB4XDTI1MDIyNTEyNDAz
MloXDTI1MDIyNjEyNDAzMlowZjEjMCEGA1UECgwaUmFkaWF0b3IgRGVtbyBDZXJ0
aWZpY2F0ZXMxITAfBgNVBAsMGFRlc3QgQ2VydGlmaWNhdGUgU2VjdGlvbjEcMBoG
A1UEAwwTZXhwaXJlZC5leGFtcGxlLmNvbTBZMBMGByqGSM49AgEGCCqGSM49AwEH
A0IABGbSVuMtMh1ugpv/QX7x43rffcsff+ymWfpRnNqIBYXlFpQ6W1iZXhEmDfEx
UvI+NfyuPrfT8Kk+yiyjKrCe9VOjgfgwgfUwDAYDVR0TAQH/BAIwADALBgNVHQ8E
BAMCBaAwHQYDVR0lBBYwFAYIKwYBBQUHAwIGCCsGAQUFBwMBMHkGA1UdEQRyMHCH
BMAAAj2HECABDbgBSAEAAAAAAAAAAGGCE2V4cGlyZWQuZXhhbXBsZS5jb22GG2h0
dHBzOi8vZXhwaXJlZC5leGFtcGxlLmNvbYEkZXhwaXJlZEByYWRpYXRvcnNvZnR3
YXJlLmV4YW1wbGUuY29tMB0GA1UdDgQWBBQq2e2EJA26OO+6Qv3HUAl+LgNQ/TAf
BgNVHSMEGDAWgBRcj7PZnqvWnG+IT6SqtEK1KS8vazAKBggqhkjOPQQDAgNJADBG
AiEAoIewYB1weeWN02bqne3Fly4HiMk6u8aCBDp7b6P6LikCIQDR1+Nla9E3HzxD
TONYfFGE6RKetjSI9zOf0maPZx9hOA==
-----END CERTIFICATE-----
