Certificate:
    Data:
        Version: 3 (0x2)
        Serial Number: 138059851011 (0x2025022503)
        Signature Algorithm: ecdsa-with-SHA256
        Issuer: O = Radiator Demo Certificates, OU = Test Certificate Section, CN = Radiator Test Intermediate CA I1 (do not use in production)
        Validity
            Not Before: Feb 25 12:40:28 2025 GMT
            Not After : Feb 26 12:40:28 2025 GMT
        Subject: O = Radiator Demo Certificates, OU = Test Certificate Section, CN = expired.example.com
        Subject Public Key Info:
            Public Key Algorithm: id-ecPublicKey
                Public-Key: (256 bit)
                pub:
                    04:66:d2:56:e3:2d:32:1d:6e:82:9b:ff:41:7e:f1:
                    e3:7a:df:7d:cb:1f:7f:ec:a6:59:fa:51:9c:da:88:
                    05:85:e5:16:94:3a:5b:58:99:5e:11:26:0d:f1:31:
                    52:f2:3e:35:fc:ae:3e:b7:d3:f0:a9:3e:ca:2c:a3:
                    2a:b0:9e:f5:53
                ASN1 OID: prime256v1
                NIST CURVE: P-256
        X509v3 extensions:
            X509v3 Basic Constraints: critical
                CA:FALSE
            X509v3 Key Usage: 
                Digital Signature, Key Encipherment
            X509v3 Extended Key Usage: 
                TLS Web Client Authentication, TLS Web Server Authentication
            X509v3 Subject Alternative Name: 
                IP Address:192.0.2.61, IP Address:2001:DB8:148:100:0:0:0:61, DNS:expired.example.com, URI:https://expired.example.com, email:expired@radiatorsoftware.example.com
            X509v3 Subject Key Identifier: 
                2A:D9:ED:84:24:0D:BA:38:EF:BA:42:FD:C7:50:09:7E:2E:03:50:FD
            X509v3 Authority Key Identifier: 
                87:B3:F3:C0:22:FB:85:FF:CF:2C:CB:34:6A:6C:39:4C:0D:97:4A:CD
    Signature Algorithm: ecdsa-with-SHA256
    Signature Value:
        30:46:02:21:00:d4:6a:9b:1e:12:ff:89:c1:38:90:89:a1:b4:
        12:ab:e4:0c:bc:ec:78:78:36:04:02:17:33:9f:4b:85:10:7d:
        3c:02:21:00:e5:78:13:17:e1:79:20:18:e7:a0:e7:62:57:77:
        0b:71:8a:04:fc:0b:33:32:36:4f:a7:86:99:19:1c:52:d5:6b
-----BEGIN CERTIFICATE-----
MIIC4jCCAoegAwIBAgIFICUCJQMwCgYIKoZIzj0EAwIwgY4xIzAhBgNVBAoMGlJh
ZGlhdG9yIERlbW8gQ2VydGlmaWNhdGVzMSEwHwYDVQQLDBhUZXN0IENlcnRpZmlj
YXRlIFNlY3Rpb24xRDBCBgNVBAMMO1JhZGlhdG9yIFRlc3QgSW50ZXJtZWRpYXRl
IENBIEkxIChkbyBub3QgdXNlIGluIHByb2R1Y3Rpb24pMB4XDTI1MDIyNTEyNDAy
OFoXDTI1MDIyNjEyNDAyOFowZjEjMCEGA1UECgwaUmFkaWF0b3IgRGVtbyBDZXJ0
aWZpY2F0ZXMxITAfBgNVBAsMGFRlc3QgQ2VydGlmaWNhdGUgU2VjdGlvbjEcMBoG
A1UEAwwTZXhwaXJlZC5leGFtcGxlLmNvbTBZMBMGByqGSM49AgEGCCqGSM49AwEH
A0IABGbSVuMtMh1ugpv/QX7x43rffcsff+ymWfpRnNqIBYXlFpQ6W1iZXhEmDfEx
UvI+NfyuPrfT8Kk+yiyjKrCe9VOjgfgwgfUwDAYDVR0TAQH/BAIwADALBgNVHQ8E
BAMCBaAwHQYDVR0lBBYwFAYIKwYBBQUHAwIGCCsGAQUFBwMBMHkGA1UdEQRyMHCH
BMAAAj2HECABDbgBSAEAAAAAAAAAAGGCE2V4cGlyZWQuZXhhbXBsZS5jb22GG2h0
dHBzOi8vZXhwaXJlZC5leGFtcGxlLmNvbYEkZXhwaXJlZEByYWRpYXRvcnNvZnR3
YXJlLmV4YW1wbGUuY29tMB0GA1UdDgQWBBQq2e2EJA26OO+6Qv3HUAl+LgNQ/TAf
BgNVHSMEGDAWgBSHs/PAIvuF/88syzRqbDlMDZdKzTAKBggqhkjOPQQDAgNJADBG
AiEA1GqbHhL/icE4kImhtBKr5Ay87Hh4NgQCFzOfS4UQfTwCIQDleBMX4XkgGOeg
52JXdwtxigT8CzMyNk+nhpkZHFLVaw==
-----END CERTIFICATE-----
Certificate:
    Data:
        Version: 3 (0x2)
        Serial Number: 138059851012 (0x2025022504)
        Signature Algorithm: ecdsa-with-SHA256
        Issuer: O = Radiator Demo Certificates, OU = Test Certificate Section, CN = Radiator Test CA (do not use in production), emailAddress = testUser@radiatorsoftware.example.com
        Validity
            Not Before: Feb 25 12:40:24 2025 GMT
            Not After : Feb 25 12:40:24 2027 GMT
        Subject: O = Radiator Demo Certificates, OU = Test Certificate Section, CN = Radiator Test Intermediate CA I1 (do not use in production)
        Subject Public Key Info:
            Public Key Algorithm: id-ecPublicKey
                Public-Key: (256 bit)
                pub:
                    04:44:f0:54:97:43:6b:dc:ba:eb:09:51:86:fa:8a:
                    cb:56:88:91:6f:d9:14:32:ca:0a:9f:60:22:2b:dc:
                    90:dc:93:2c:c9:cb:99:96:96:a4:8f:2f:0b:1a:7a:
                    63:a7:9e:94:c3:14:67:b1:3f:b4:f4:86:0d:8b:f9:
                    01:6a:e2:79:8a
                ASN1 OID: prime256v1
                NIST CURVE: P-256
        X509v3 extensions:
            X509v3 Basic Constraints: critical
                CA:TRUE, pathlen:0
            X509v3 Key Usage: critical
                Certificate Sign, CRL Sign
            X509v3 Subject Key Identifier: 
                87:B3:F3:C0:22:FB:85:FF:CF:2C:CB:34:6A:6C:39:4C:0D:97:4A:CD
            X509v3 Authority Key Identifier: 
                98:56:1E:D8:8E:6A:43:88:87:C6:FF:BF:FC:C9:A8:8E:80:E7:77:6A
    Signature Algorithm: ecdsa-with-SHA256
    Signature Value:
        30:44:02:20:16:da:a2:91:b6:71:03:bb:bd:f3:dc:95:cf:c8:
        ad:26:16:10:9a:23:80:9c:c7:f0:bf:1b:22:47:ab:52:1c:9d:
        02:20:4a:d8:a4:b1:dc:78:d6:e7:f5:d2:08:8f:fa:22:4b:6b:
        1d:de:89:71:21:42:19:ef:22:56:29:ae:9b:18:59:f1
-----BEGIN CERTIFICATE-----
MIICnDCCAkOgAwIBAgIFICUCJQQwCgYIKoZIzj0EAwIwgbQxIzAhBgNVBAoMGlJh
ZGlhdG9yIERlbW8gQ2VydGlmaWNhdGVzMSEwHwYDVQQLDBhUZXN0IENlcnRpZmlj
YXRlIFNlY3Rpb24xNDAyBgNVBAMMK1JhZGlhdG9yIFRlc3QgQ0EgKGRvIG5vdCB1
c2UgaW4gcHJvZHVjdGlvbikxNDAyBgkqhkiG9w0BCQEWJXRlc3RVc2VyQHJhZGlh
dG9yc29mdHdhcmUuZXhhbXBsZS5jb20wHhcNMjUwMjI1MTI0MDI0WhcNMjcwMjI1
MTI0MDI0WjCBjjEjMCEGA1UECgwaUmFkaWF0b3IgRGVtbyBDZXJ0aWZpY2F0ZXMx
ITAfBgNVBAsMGFRlc3QgQ2VydGlmaWNhdGUgU2VjdGlvbjFEMEIGA1UEAww7UmFk
aWF0b3IgVGVzdCBJbnRlcm1lZGlhdGUgQ0EgSTEgKGRvIG5vdCB1c2UgaW4gcHJv
ZHVjdGlvbikwWTATBgcqhkjOPQIBBggqhkjOPQMBBwNCAARE8FSXQ2vcuusJUYb6
istWiJFv2RQyygqfYCIr3JDckyzJy5mWlqSPLwsaemOnnpTDFGexP7T0hg2L+QFq
4nmKo2YwZDASBgNVHRMBAf8ECDAGAQH/AgEAMA4GA1UdDwEB/wQEAwIBBjAdBgNV
HQ4EFgQUh7PzwCL7hf/PLMs0amw5TA2XSs0wHwYDVR0jBBgwFoAUmFYe2I5qQ4iH
xv+//MmojoDnd2owCgYIKoZIzj0EAwIDRwAwRAIgFtqikbZxA7u989yVz8itJhYQ
miOAnMfwvxsiR6tSHJ0CIErYpLHceNbn9dIIj/oiS2sd3olxIUIZ7yJWKa6bGFnx
-----END CERTIFICATE-----
-----BEGIN ENCRYPTED PRIVATE KEY-----
MIHjME4GCSqGSIb3DQEFDTBBMCkGCSqGSIb3DQEFDDAcBAgoCF2QsFPBdwICCAAw
DAYIKoZIhvcNAgkFADAUBggqhkiG9w0DBwQI4o/Amg15fcoEgZCFcmNNig8fQKLJ
AgxVR4Ic+n2QJvOznKK8BER0CdSa4vANdJWsE2fSzNgvJbc5CxlT0rfX804PIwZC
zPJZUXO9Dc60crvP1dHPWG8oYAY8zG8jpYSLDXZS0gVGBCRn+gz2sm39cKU/SmV5
vRzDQ7flSebKiYu8nuI0cnoCiPzUZuJ4FY4PDJyTzMiYr5JSH6Y=
-----END ENCRYPTED PRIVATE KEY-----
