Certificate:
    Data:
        Version: 3 (0x2)
        Serial Number: 138059851010 (0x2025022502)
        Signature Algorithm: ecdsa-with-SHA256
        Issuer: O = Radiator Demo Certificates, OU = Test Certificate Section, CN = Radiator Test Intermediate CA I2 (do not use in production)
        Validity
            Not Before: Feb 25 12:40:32 2025 GMT
            Not After : Feb 25 12:40:32 2027 GMT
        Subject: O = Radiator Demo Certificates, OU = Test Certificate Section, CN = test.server.example.com
        Subject Public Key Info:
            Public Key Algorithm: id-ecPublicKey
                Public-Key: (256 bit)
                pub:
                    04:ea:97:c3:14:81:e4:59:7c:31:f9:c2:82:09:65:
                    81:1d:74:fc:ca:22:58:69:ff:6e:84:1f:3f:b7:d8:
                    d3:cc:16:2c:bf:43:aa:1f:30:9f:93:fa:98:d6:86:
                    90:8b:22:83:cf:8a:cb:25:9b:4b:25:b1:11:30:93:
                    c1:c8:2e:d6:60
                ASN1 OID: prime256v1
                NIST CURVE: P-256
        X509v3 extensions:
            X509v3 Basic Constraints: critical
                CA:FALSE
            X509v3 Key Usage: 
                Digital Signature, Key Encipherment
            X509v3 Extended Key Usage: 
                TLS Web Server Authentication
            X509v3 Subject Alternative Name: 
                IP Address:192.0.2.101, IP Address:2001:DB8:148:100:0:0:0:101, DNS:test.server.example.com, URI:https://test.server.example.com
            X509v3 Subject Key Identifier: 
                6C:0F:ED:B3:F1:54:4F:B1:66:20:39:2D:45:D8:7A:54:27:B7:3D:20
            X509v3 Authority Key Identifier: 
                5C:8F:B3:D9:9E:AB:D6:9C:6F:88:4F:A4:AA:B4:42:B5:29:2F:2F:6B
    Signature Algorithm: ecdsa-with-SHA256
    Signature Value:
        30:45:02:21:00:8f:71:bb:d5:0d:b5:a5:f3:c6:87:a1:49:a1:
        df:29:7a:2b:7a:56:5a:8e:ab:53:f7:91:64:30:dd:c3:c9:9f:
        aa:02:20:7b:b8:cb:dc:f6:76:a8:7b:6d:54:54:99:ca:04:ba:
        24:9d:9e:ae:9b:4a:c8:bb:2a:1a:51:59:9e:2f:26:f1:7a
-----BEGIN CERTIFICATE-----
MIICvTCCAmOgAwIBAgIFICUCJQIwCgYIKoZIzj0EAwIwgY4xIzAhBgNVBAoMGlJh
ZGlhdG9yIERlbW8gQ2VydGlmaWNhdGVzMSEwHwYDVQQLDBhUZXN0IENlcnRpZmlj
YXRlIFNlY3Rpb24xRDBCBgNVBAMMO1JhZGlhdG9yIFRlc3QgSW50ZXJtZWRpYXRl
IENBIEkyIChkbyBub3QgdXNlIGluIHByb2R1Y3Rpb24pMB4XDTI1MDIyNTEyNDAz
MloXDTI3MDIyNTEyNDAzMlowajEjMCEGA1UECgwaUmFkaWF0b3IgRGVtbyBDZXJ0
aWZpY2F0ZXMxITAfBgNVBAsMGFRlc3QgQ2VydGlmaWNhdGUgU2VjdGlvbjEgMB4G
A1UEAwwXdGVzdC5zZXJ2ZXIuZXhhbXBsZS5jb20wWTATBgcqhkjOPQIBBggqhkjO
PQMBBwNCAATql8MUgeRZfDH5woIJZYEddPzKIlhp/26EHz+32NPMFiy/Q6ofMJ+T
+pjWhpCLIoPPisslm0slsREwk8HILtZgo4HQMIHNMAwGA1UdEwEB/wQCMAAwCwYD
VR0PBAQDAgWgMBMGA1UdJQQMMAoGCCsGAQUFBwMBMFsGA1UdEQRUMFKHBMAAAmWH
ECABDbgBSAEAAAAAAAAAAQGCF3Rlc3Quc2VydmVyLmV4YW1wbGUuY29thh9odHRw
czovL3Rlc3Quc2VydmVyLmV4YW1wbGUuY29tMB0GA1UdDgQWBBRsD+2z8VRPsWYg
OS1F2HpUJ7c9IDAfBgNVHSMEGDAWgBRcj7PZnqvWnG+IT6SqtEK1KS8vazAKBggq
hkjOPQQDAgNIADBFAiEAj3G71Q21pfPGh6FJod8peit6VlqOq1P3kWQw3cPJn6oC
IHu4y9z2dqh7bVRUmcoEuiSdnq6bSsi7KhpRWZ4vJvF6
-----END CERTIFICATE-----
Certificate:
    Data:
        Version: 3 (0x2)
        Serial Number: 138059851013 (0x2025022505)
        Signature Algorithm: ecdsa-with-SHA256
        Issuer: O = Radiator Demo Certificates, OU = Test Certificate Section, CN = Radiator Test CA (do not use in production), emailAddress = testUser@radiatorsoftware.example.com
        Validity
            Not Before: Feb 25 12:40:28 2025 GMT
            Not After : Feb 25 12:40:28 2027 GMT
        Subject: O = Radiator Demo Certificates, OU = Test Certificate Section, CN = Radiator Test Intermediate CA I2 (do not use in production)
        Subject Public Key Info:
            Public Key Algorithm: id-ecPublicKey
                Public-Key: (256 bit)
                pub:
                    04:dc:82:a9:bc:a1:51:e4:0c:4f:c1:33:f6:c6:cc:
                    73:d2:dd:24:d4:eb:b9:f3:c5:c3:41:7f:f3:24:11:
                    36:61:93:b8:42:ad:cf:86:94:3f:34:9a:2c:a6:44:
                    50:b8:5e:82:15:a3:dc:b7:24:db:1f:22:cd:59:98:
                    d8:da:19:94:61
                ASN1 OID: prime256v1
                NIST CURVE: P-256
        X509v3 extensions:
            X509v3 Basic Constraints: critical
                CA:TRUE, pathlen:0
            X509v3 Key Usage: critical
                Certificate Sign, CRL Sign
            X509v3 Subject Key Identifier: 
                5C:8F:B3:D9:9E:AB:D6:9C:6F:88:4F:A4:AA:B4:42:B5:29:2F:2F:6B
            X509v3 Authority Key Identifier: 
                98:56:1E:D8:8E:6A:43:88:87:C6:FF:BF:FC:C9:A8:8E:80:E7:77:6A
    Signature Algorithm: ecdsa-with-SHA256
    Signature Value:
        30:44:02:20:6c:8e:f8:b5:39:36:dd:2c:b2:54:ca:a0:b5:9a:
        49:a5:35:4a:1c:0a:7b:bc:b9:f2:f2:31:af:e9:1c:44:a2:45:
        02:20:34:9b:5d:c8:cd:d7:a9:fb:2b:4d:45:26:8c:79:d4:c8:
        19:cd:dd:75:89:ac:ef:5e:d5:ed:4d:de:63:73:86:35
-----BEGIN CERTIFICATE-----
MIICnDCCAkOgAwIBAgIFICUCJQUwCgYIKoZIzj0EAwIwgbQxIzAhBgNVBAoMGlJh
ZGlhdG9yIERlbW8gQ2VydGlmaWNhdGVzMSEwHwYDVQQLDBhUZXN0IENlcnRpZmlj
YXRlIFNlY3Rpb24xNDAyBgNVBAMMK1JhZGlhdG9yIFRlc3QgQ0EgKGRvIG5vdCB1
c2UgaW4gcHJvZHVjdGlvbikxNDAyBgkqhkiG9w0BCQEWJXRlc3RVc2VyQHJhZGlh
dG9yc29mdHdhcmUuZXhhbXBsZS5jb20wHhcNMjUwMjI1MTI0MDI4WhcNMjcwMjI1
MTI0MDI4WjCBjjEjMCEGA1UECgwaUmFkaWF0b3IgRGVtbyBDZXJ0aWZpY2F0ZXMx
ITAfBgNVBAsMGFRlc3QgQ2VydGlmaWNhdGUgU2VjdGlvbjFEMEIGA1UEAww7UmFk
aWF0b3IgVGVzdCBJbnRlcm1lZGlhdGUgQ0EgSTIgKGRvIG5vdCB1c2UgaW4gcHJv
ZHVjdGlvbikwWTATBgcqhkjOPQIBBggqhkjOPQMBBwNCAATcgqm8oVHkDE/BM/bG
zHPS3STU67nzxcNBf/MkETZhk7hCrc+GlD80miymRFC4XoIVo9y3JNsfIs1ZmNja
GZRho2YwZDASBgNVHRMBAf8ECDAGAQH/AgEAMA4GA1UdDwEB/wQEAwIBBjAdBgNV
HQ4EFgQUXI+z2Z6r1pxviE+kqrRCtSkvL2swHwYDVR0jBBgwFoAUmFYe2I5qQ4iH
xv+//MmojoDnd2owCgYIKoZIzj0EAwIDRwAwRAIgbI74tTk23SyyVMqgtZpJpTVK
HAp7vLny8jGv6RxEokUCIDSbXcjN16n7K01FJox51MgZzd11iazvXtXtTd5jc4Y1
-----END CERTIFICATE-----
-----BEGIN ENCRYPTED PRIVATE KEY-----
MIHjME4GCSqGSIb3DQEFDTBBMCkGCSqGSIb3DQEFDDAcBAg8Ztgnx10YRwICCAAw
DAYIKoZIhvcNAgkFADAUBggqhkiG9w0DBwQIB3o9l4Wl6O4EgZCFeBmDIKA/vUmk
yU+mMm5M9HogR7e9F7gv9++U9dqDofSNjYuV0sQ0vhZ8G9MZyS6BkXMDoJ/pfXxA
SIuEDpSWabhQMSlmIhClmYtPZdd6i6KiKN/HpCxo1AKmRb0yuQa4K2W8Sq3dFzvB
uce4xgpJSejmUfMyuX4CB1V3n5ZcXk45mpfyuQuJoywh5aPUhrA=
-----END ENCRYPTED PRIVATE KEY-----
