Certificate:
    Data:
        Version: 3 (0x2)
        Serial Number: 138059851010 (0x2025022502)
        Signature Algorithm: ecdsa-with-SHA256
        Issuer: O = Radiator Demo Certificates, OU = Test Certificate Section, CN = Radiator Test Intermediate CA I2 (do not use in production)
        Validity
            Not Before: Feb 25 12:40:32 2025 GMT
            Not After : Feb 25 12:40:32 2027 GMT
        Subject: O = Radiator Demo Certificates, OU = Test Certificate Section, CN = test.server.example.com
        Subject Public Key Info:
            Public Key Algorithm: id-ecPublicKey
                Public-Key: (256 bit)
                pub:
                    04:ea:97:c3:14:81:e4:59:7c:31:f9:c2:82:09:65:
                    81:1d:74:fc:ca:22:58:69:ff:6e:84:1f:3f:b7:d8:
                    d3:cc:16:2c:bf:43:aa:1f:30:9f:93:fa:98:d6:86:
                    90:8b:22:83:cf:8a:cb:25:9b:4b:25:b1:11:30:93:
                    c1:c8:2e:d6:60
                ASN1 OID: prime256v1
                NIST CURVE: P-256
        X509v3 extensions:
            X509v3 Basic Constraints: critical
                CA:FALSE
            X509v3 Key Usage: 
                Digital Signature, Key Encipherment
            X509v3 Extended Key Usage: 
                TLS Web Server Authentication
            X509v3 Subject Alternative Name: 
                IP Address:192.0.2.101, IP Address:2001:DB8:148:100:0:0:0:101, DNS:test.server.example.com, URI:https://test.server.example.com
            X509v3 Subject Key Identifier: 
                6C:0F:ED:B3:F1:54:4F:B1:66:20:39:2D:45:D8:7A:54:27:B7:3D:20
            X509v3 Authority Key Identifier: 
                5C:8F:B3:D9:9E:AB:D6:9C:6F:88:4F:A4:AA:B4:42:B5:29:2F:2F:6B
    Signature Algorithm: ecdsa-with-SHA256
    Signature Value:
        30:45:02:21:00:8f:71:bb:d5:0d:b5:a5:f3:c6:87:a1:49:a1:
        df:29:7a:2b:7a:56:5a:8e:ab:53:f7:91:64:30:dd:c3:c9:9f:
        aa:02:20:7b:b8:cb:dc:f6:76:a8:7b:6d:54:54:99:ca:04:ba:
        24:9d:9e:ae:9b:4a:c8:bb:2a:1a:51:59:9e:2f:26:f1:7a
-----BEGIN CERTIFICATE-----
MIICvTCCAmOgAwIBAgIFICUCJQIwCgYIKoZIzj0EAwIwgY4xIzAhBgNVBAoMGlJh
ZGlhdG9yIERlbW8gQ2VydGlmaWNhdGVzMSEwHwYDVQQLDBhUZXN0IENlcnRpZmlj
YXRlIFNlY3Rpb24xRDBCBgNVBAMMO1JhZGlhdG9yIFRlc3QgSW50ZXJtZWRpYXRl
IENBIEkyIChkbyBub3QgdXNlIGluIHByb2R1Y3Rpb24pMB4XDTI1MDIyNTEyNDAz
MloXDTI3MDIyNTEyNDAzMlowajEjMCEGA1UECgwaUmFkaWF0b3IgRGVtbyBDZXJ0
aWZpY2F0ZXMxITAfBgNVBAsMGFRlc3QgQ2VydGlmaWNhdGUgU2VjdGlvbjEgMB4G
A1UEAwwXdGVzdC5zZXJ2ZXIuZXhhbXBsZS5jb20wWTATBgcqhkjOPQIBBggqhkjO
PQMBBwNCAATql8MUgeRZfDH5woIJZYEddPzKIlhp/26EHz+32NPMFiy/Q6ofMJ+T
+pjWhpCLIoPPisslm0slsREwk8HILtZgo4HQMIHNMAwGA1UdEwEB/wQCMAAwCwYD
VR0PBAQDAgWgMBMGA1UdJQQMMAoGCCsGAQUFBwMBMFsGA1UdEQRUMFKHBMAAAmWH
ECABDbgBSAEAAAAAAAAAAQGCF3Rlc3Quc2VydmVyLmV4YW1wbGUuY29thh9odHRw
czovL3Rlc3Quc2VydmVyLmV4YW1wbGUuY29tMB0GA1UdDgQWBBRsD+2z8VRPsWYg
OS1F2HpUJ7c9IDAfBgNVHSMEGDAWgBRcj7PZnqvWnG+IT6SqtEK1KS8vazAKBggq
hkjOPQQDAgNIADBFAiEAj3G71Q21pfPGh6FJod8peit6VlqOq1P3kWQw3cPJn6oC
IHu4y9z2dqh7bVRUmcoEuiSdnq6bSsi7KhpRWZ4vJvF6
-----END CERTIFICATE-----
